; Function Attrs: nounwind uwtable
define internal void @ft_destructor(ptr noundef %0) #0 {
  %2 = getelementptr inbounds nuw i8, ptr %0, i64 144
  %3 = load ptr, ptr %2, align 8, !tbaa !62
  %.not = icmp eq ptr %3, null
  br i1 %.not, label %31, label %4

4:                                                ; preds = %1
  %5 = tail call i32 @pthread_mutex_lock(ptr noundef nonnull %3) #13
  %6 = icmp eq i32 %5, 35
  br i1 %6, label %7, label %pmix_obj_update.exit

7:                                                ; preds = %4
  %8 = tail call ptr @__errno_location() #16
  store i32 35, ptr %8, align 4, !tbaa !54
  tail call void @perror(ptr noundef nonnull @.str.2) #17
  tail call void @abort() #18
  unreachable

pmix_obj_update.exit:                             ; preds = %4
  %9 = getelementptr inbounds nuw i8, ptr %3, i64 48
  %10 = load i32, ptr %9, align 8, !tbaa !57
  %11 = add nsw i32 %10, -1
  store i32 %11, ptr %9, align 8, !tbaa !57
  %12 = tail call i32 @pthread_mutex_unlock(ptr noundef nonnull %3) #13
  %13 = icmp eq i32 %11, 0
  br i1 %13, label %14, label %31

14:                                               ; preds = %pmix_obj_update.exit
  %15 = getelementptr inbounds nuw i8, ptr %3, i64 40
  %16 = load ptr, ptr %15, align 8, !tbaa !56
  %17 = getelementptr inbounds nuw i8, ptr %16, i64 48
  %18 = load ptr, ptr %17, align 8, !tbaa !76
  %19 = load ptr, ptr %18, align 8, !tbaa !59
  %.not6.i = icmp eq ptr %19, null
  br i1 %.not6.i, label %pmix_obj_run_destructors.exit, label %.lr.ph.i

.lr.ph.i:                                         ; preds = %14, %.lr.ph.i
  %20 = phi ptr [ %22, %.lr.ph.i ], [ %19, %14 ]
  %.07.i = phi ptr [ %21, %.lr.ph.i ], [ %18, %14 ]
  tail call void %20(ptr noundef nonnull %3) #13
  %21 = getelementptr inbounds nuw i8, ptr %.07.i, i64 8
  %22 = load ptr, ptr %21, align 8, !tbaa !59
  %.not.i = icmp eq ptr %22, null
  br i1 %.not.i, label %pmix_obj_run_destructors.exit, label %.lr.ph.i, !llvm.loop !77

pmix_obj_run_destructors.exit:                    ; preds = %.lr.ph.i, %14
  %23 = getelementptr inbounds nuw i8, ptr %3, i64 96
  %24 = load ptr, ptr %23, align 8, !tbaa !78
  %.not22 = icmp eq ptr %24, null
  br i1 %.not22, label %28, label %25

25:                                               ; preds = %pmix_obj_run_destructors.exit
  %26 = getelementptr inbounds nuw i8, ptr %3, i64 56
  %27 = load ptr, ptr %2, align 8, !tbaa !62
  tail call void %24(ptr noundef nonnull %26, ptr noundef %27) #13
  br label %30

28:                                               ; preds = %pmix_obj_run_destructors.exit
  %29 = load ptr, ptr %2, align 8, !tbaa !62
  tail call void @free(ptr noundef %29) #13
  br label %30

30:                                               ; preds = %28, %25
  store ptr null, ptr %2, align 8, !tbaa !62
  br label %31

31:                                               ; preds = %pmix_obj_update.exit, %30, %1
  %32 = getelementptr inbounds nuw i8, ptr %0, i64 152
  %33 = load ptr, ptr %32, align 8, !tbaa !84
  %.not23 = icmp eq ptr %33, null
  br i1 %.not23, label %35, label %34

34:                                               ; preds = %31
  tail call void @free(ptr noundef nonnull %33) #13
  br label %35

35:                                               ; preds = %34, %31
  %36 = getelementptr inbounds nuw i8, ptr %0, i64 160
  %37 = load i8, ptr %36, align 8, !tbaa !85, !range !74, !noundef !75
  %38 = trunc nuw i8 %37 to i1
  br i1 %38, label %39, label %42

39:                                               ; preds = %35
  %40 = getelementptr inbounds nuw i8, ptr %0, i64 168
  %41 = tail call i32 @event_del(ptr noundef nonnull %40) #13
  br label %42

42:                                               ; preds = %39, %35
  %43 = getelementptr inbounds nuw i8, ptr %0, i64 448
  %44 = load ptr, ptr %43, align 8, !tbaa !66
  %.not24 = icmp eq ptr %44, null
  br i1 %.not24, label %46, label %45

45:                                               ; preds = %42
  tail call void @free(ptr noundef nonnull %44) #13
  br label %46

46:                                               ; preds = %45, %42
  %47 = getelementptr inbounds nuw i8, ptr %0, i64 504
  %48 = load ptr, ptr %47, align 8, !tbaa !86
  %.not25 = icmp eq ptr %48, null
  br i1 %.not25, label %52, label %49

49:                                               ; preds = %46
  %50 = getelementptr inbounds nuw i8, ptr %0, i64 512
  %51 = load i64, ptr %50, align 8, !tbaa !87
  tail call void @PMIx_Info_free(ptr noundef nonnull %48, i64 noundef %51) #13
  store ptr null, ptr %47, align 8, !tbaa !86
  br label %52

52:                                               ; preds = %49, %46
  ret void
}